(lp0
cnumpy.core.multiarray
scalar
p1
(cnumpy
dtype
p2
(S'f8'
p3
I0
I1
tp4
Rp5
(I3
S'<'
p6
NNNI-1
I-1
I0
tp7
bS'#\xe1\xea\xd5\x86\xe9\xf3?'
p8
tp9
Rp10
a(dp11
S' '
p12
I18
sS'^'
p13
I2
sS'a'
p14
I14
sS'c'
p15
I3
sS'b'
p16
I11
sS'e'
p17
I17
sS'd'
p18
I21
sS'g'
p19
I9
sS'f'
p20
I24
sS'i'
p21
I7
sS'h'
p22
I4
sS'k'
p23
I19
sS'j'
p24
I1
sS'm'
p25
I27
sS'l'
p26
I26
sS'o'
p27
I22
sS'n'
p28
I8
sS'q'
p29
I6
sS'p'
p30
I25
sS's'
p31
I15
sS'r'
p32
I23
sS'u'
p33
I12
sS't'
p34
I13
sS'w'
p35
I16
sS'v'
p36
I5
sS'y'
p37
I28
sS'x'
p38
I10
sS'z'
p39
I20
sa.(lp0
cnumpy.core.multiarray
scalar
p1
(cnumpy
dtype
p2
(S'f8'
p3
I0
I1
tp4
Rp5
(I3
S'<'
p6
NNNI-1
I-1
I0
tp7
bS'\x86\xa4\xe6\x81\xc83\xf4?'
p8
tp9
Rp10
a(dp11
S' '
p12
I13
sS'^'
p13
I27
sS'a'
p14
I16
sS'c'
p15
I15
sS'b'
p16
I9
sS'e'
p17
I25
sS'd'
p18
I3
sS'g'
p19
I23
sS'f'
p20
I2
sS'i'
p21
I22
sS'h'
p22
I7
sS'k'
p23
I5
sS'j'
p24
I19
sS'm'
p25
I4
sS'l'
p26
I21
sS'o'
p27
I26
sS'n'
p28
I24
sS'q'
p29
I1
sS'p'
p30
I28
sS's'
p31
I14
sS'r'
p32
I12
sS'u'
p33
I11
sS't'
p34
I17
sS'w'
p35
I18
sS'v'
p36
I6
sS'y'
p37
I8
sS'x'
p38
I10
sS'z'
p39
I20
sa.(lp0
cnumpy.core.multiarray
scalar
p1
(cnumpy
dtype
p2
(S'f8'
p3
I0
I1
tp4
Rp5
(I3
S'<'
p6
NNNI-1
I-1
I0
tp7
bS'Gz\x9b\xd4F+\xf4?'
p8
tp9
Rp10
a(dp11
S' '
p12
I18
sS'^'
p13
I5
sS'a'
p14
I13
sS'c'
p15
I7
sS'b'
p16
I25
sS'e'
p17
I8
sS'd'
p18
I27
sS'g'
p19
I1
sS'f'
p20
I21
sS'i'
p21
I17
sS'h'
p22
I3
sS'k'
p23
I23
sS'j'
p24
I15
sS'm'
p25
I19
sS'l'
p26
I22
sS'o'
p27
I12
sS'n'
p28
I2
sS'q'
p29
I20
sS'p'
p30
I16
sS's'
p31
I14
sS'r'
p32
I11
sS'u'
p33
I26
sS't'
p34
I9
sS'w'
p35
I4
sS'v'
p36
I6
sS'y'
p37
I10
sS'x'
p38
I24
sS'z'
p39
I28
sa.(lp0
cnumpy.core.multiarray
scalar
p1
(cnumpy
dtype
p2
(S'f8'
p3
I0
I1
tp4
Rp5
(I3
S'<'
p6
NNNI-1
I-1
I0
tp7
bS'\xa9\xc6C\xbe\xff\xe0\xf3?'
p8
tp9
Rp10
a(dp11
S' '
p12
I13
sS'^'
p13
I25
sS'a'
p14
I8
sS'c'
p15
I2
sS'b'
p16
I15
sS'e'
p17
I12
sS'd'
p18
I26
sS'g'
p19
I10
sS'f'
p20
I7
sS'i'
p21
I19
sS'h'
p22
I9
sS'k'
p23
I6
sS'j'
p24
I5
sS'm'
p25
I14
sS'l'
p26
I22
sS'o'
p27
I17
sS'n'
p28
I4
sS'q'
p29
I1
sS'p'
p30
I11
sS's'
p31
I16
sS'r'
p32
I18
sS'u'
p33
I27
sS't'
p34
I3
sS'w'
p35
I21
sS'v'
p36
I23
sS'y'
p37
I24
sS'x'
p38
I20
sS'z'
p39
I28
sa.(lp0
cnumpy.core.multiarray
scalar
p1
(cnumpy
dtype
p2
(S'f8'
p3
I0
I1
tp4
Rp5
(I3
S'<'
p6
NNNI-1
I-1
I0
tp7
bS'\xc1z\xb1g\xc1\xd9\xf3?'
p8
tp9
Rp10
a(dp11
S' '
p12
I13
sS'^'
p13
I21
sS'a'
p14
I3
sS'c'
p15
I26
sS'b'
p16
I6
sS'e'
p17
I17
sS'd'
p18
I7
sS'g'
p19
I2
sS'f'
p20
I5
sS'i'
p21
I9
sS'h'
p22
I27
sS'k'
p23
I24
sS'j'
p24
I15
sS'm'
p25
I22
sS'l'
p26
I4
sS'o'
p27
I8
sS'n'
p28
I12
sS'q'
p29
I10
sS'p'
p30
I16
sS's'
p31
I25
sS'r'
p32
I14
sS'u'
p33
I23
sS't'
p34
I18
sS'w'
p35
I19
sS'v'
p36
I11
sS'y'
p37
I28
sS'x'
p38
I20
sS'z'
p39
I1
sa.(lp0
cnumpy.core.multiarray
scalar
p1
(cnumpy
dtype
p2
(S'f8'
p3
I0
I1
tp4
Rp5
(I3
S'<'
p6
NNNI-1
I-1
I0
tp7
bS'\rg:\xf4z\x1e\xf4?'
p8
tp9
Rp10
a(dp11
S' '
p12
I18
sS'^'
p13
I2
sS'a'
p14
I23
sS'c'
p15
I21
sS'b'
p16
I16
sS'e'
p17
I17
sS'd'
p18
I26
sS'g'
p19
I9
sS'f'
p20
I24
sS'i'
p21
I8
sS'h'
p22
I22
sS'k'
p23
I10
sS'j'
p24
I25
sS'm'
p25
I4
sS'l'
p26
I15
sS'o'
p27
I27
sS'n'
p28
I12
sS'q'
p29
I28
sS'p'
p30
I7
sS's'
p31
I19
sS'r'
p32
I14
sS'u'
p33
I5
sS't'
p34
I13
sS'w'
p35
I3
sS'v'
p36
I11
sS'y'
p37
I6
sS'x'
p38
I1
sS'z'
p39
I20
sa.(lp0
cnumpy.core.multiarray
scalar
p1
(cnumpy
dtype
p2
(S'f8'
p3
I0
I1
tp4
Rp5
(I3
S'<'
p6
NNNI-1
I-1
I0
tp7
bS'vF\xe3\xfcRu\xf4?'
p8
tp9
Rp10
a(dp11
S' '
p12
I12
sS'^'
p13
I24
sS'a'
p14
I18
sS'c'
p15
I9
sS'b'
p16
I19
sS'e'
p17
I13
sS'd'
p18
I11
sS'g'
p19
I6
sS'f'
p20
I27
sS'i'
p21
I21
sS'h'
p22
I16
sS'k'
p23
I5
sS'j'
p24
I10
sS'm'
p25
I2
sS'l'
p26
I26
sS'o'
p27
I8
sS'n'
p28
I7
sS'q'
p29
I28
sS'p'
p30
I4
sS's'
p31
I14
sS'r'
p32
I3
sS'u'
p33
I22
sS't'
p34
I17
sS'w'
p35
I25
sS'v'
p36
I23
sS'y'
p37
I15
sS'x'
p38
I1
sS'z'
p39
I20
sa.(lp0
cnumpy.core.multiarray
scalar
p1
(cnumpy
dtype
p2
(S'f8'
p3
I0
I1
tp4
Rp5
(I3
S'<'
p6
NNNI-1
I-1
I0
tp7
bS'\xd2\x16\xd8h\x0c\xb2\xf3?'
p8
tp9
Rp10
a(dp11
S' '
p12
I17
sS'^'
p13
I5
sS'a'
p14
I13
sS'c'
p15
I8
sS'b'
p16
I15
sS'e'
p17
I16
sS'd'
p18
I25
sS'g'
p19
I1
sS'f'
p20
I18
sS'i'
p21
I26
sS'h'
p22
I6
sS'k'
p23
I23
sS'j'
p24
I24
sS'm'
p25
I27
sS'l'
p26
I21
sS'o'
p27
I12
sS'n'
p28
I2
sS'q'
p29
I19
sS'p'
p30
I4
sS's'
p31
I22
sS'r'
p32
I3
sS'u'
p33
I11
sS't'
p34
I7
sS'w'
p35
I14
sS'v'
p36
I28
sS'y'
p37
I9
sS'x'
p38
I10
sS'z'
p39
I20
sa.(lp0
cnumpy.core.multiarray
scalar
p1
(cnumpy
dtype
p2
(S'f8'
p3
I0
I1
tp4
Rp5
(I3
S'<'
p6
NNNI-1
I-1
I0
tp7
bS'\x9a\xf9+\xc8\xb7V\xf4?'
p8
tp9
Rp10
a(dp11
S' '
p12
I17
sS'^'
p13
I10
sS'a'
p14
I3
sS'c'
p15
I2
sS'b'
p16
I21
sS'e'
p17
I7
sS'd'
p18
I26
sS'g'
p19
I5
sS'f'
p20
I14
sS'i'
p21
I18
sS'h'
p22
I6
sS'k'
p23
I19
sS'j'
p24
I1
sS'm'
p25
I22
sS'l'
p26
I12
sS'o'
p27
I13
sS'n'
p28
I4
sS'q'
p29
I24
sS'p'
p30
I11
sS's'
p31
I27
sS'r'
p32
I8
sS'u'
p33
I25
sS't'
p34
I16
sS'w'
p35
I9
sS'v'
p36
I15
sS'y'
p37
I23
sS'x'
p38
I20
sS'z'
p39
I28
sa.(lp0
cnumpy.core.multiarray
scalar
p1
(cnumpy
dtype
p2
(S'f8'
p3
I0
I1
tp4
Rp5
(I3
S'<'
p6
NNNI-1
I-1
I0
tp7
bS'\xa5c\xd6\xa18v\xf4?'
p8
tp9
Rp10
a(dp11
S' '
p12
I17
sS'^'
p13
I1
sS'a'
p14
I13
sS'c'
p15
I23
sS'b'
p16
I18
sS'e'
p17
I26
sS'd'
p18
I11
sS'g'
p19
I8
sS'f'
p20
I14
sS'i'
p21
I21
sS'h'
p22
I3
sS'k'
p23
I5
sS'j'
p24
I19
sS'm'
p25
I7
sS'l'
p26
I12
sS'o'
p27
I16
sS'n'
p28
I22
sS'q'
p29
I6
sS'p'
p30
I2
sS's'
p31
I4
sS'r'
p32
I15
sS'u'
p33
I24
sS't'
p34
I25
sS'w'
p35
I27
sS'v'
p36
I9
sS'y'
p37
I28
sS'x'
p38
I20
sS'z'
p39
I10
sa.(lp0
cnumpy.core.multiarray
scalar
p1
(cnumpy
dtype
p2
(S'f8'
p3
I0
I1
tp4
Rp5
(I3
S'<'
p6
NNNI-1
I-1
I0
tp7
bS'\xe1V\xbb\x12_d\xf4?'
p8
tp9
Rp10
a(dp11
S' '
p12
I8
sS'^'
p13
I15
sS'a'
p14
I22
sS'c'
p15
I27
sS'b'
p16
I26
sS'e'
p17
I13
sS'd'
p18
I7
sS'g'
p19
I16
sS'f'
p20
I19
sS'i'
p21
I17
sS'h'
p22
I14
sS'k'
p23
I1
sS'j'
p24
I28
sS'm'
p25
I5
sS'l'
p26
I12
sS'o'
p27
I3
sS'n'
p28
I4
sS'q'
p29
I25
sS'p'
p30
I21
sS's'
p31
I11
sS'r'
p32
I18
sS'u'
p33
I2
sS't'
p34
I9
sS'w'
p35
I23
sS'v'
p36
I6
sS'y'
p37
I10
sS'x'
p38
I20
sS'z'
p39
I24
sa.(lp0
cnumpy.core.multiarray
scalar
p1
(cnumpy
dtype
p2
(S'f8'
p3
I0
I1
tp4
Rp5
(I3
S'<'
p6
NNNI-1
I-1
I0
tp7
bS'\x07U]\xf8\xbb%\xf4?'
p8
tp9
Rp10
a(dp11
S' '
p12
I16
sS'^'
p13
I18
sS'a'
p14
I4
sS'c'
p15
I26
sS'b'
p16
I8
sS'e'
p17
I13
sS'd'
p18
I15
sS'g'
p19
I21
sS'f'
p20
I7
sS'i'
p21
I25
sS'h'
p22
I14
sS'k'
p23
I19
sS'j'
p24
I9
sS'm'
p25
I6
sS'l'
p26
I2
sS'o'
p27
I12
sS'n'
p28
I22
sS'q'
p29
I1
sS'p'
p30
I24
sS's'
p31
I27
sS'r'
p32
I3
sS'u'
p33
I11
sS't'
p34
I17
sS'w'
p35
I23
sS'v'
p36
I28
sS'y'
p37
I5
sS'x'
p38
I20
sS'z'
p39
I10
sa.(lp0
cnumpy.core.multiarray
scalar
p1
(cnumpy
dtype
p2
(S'f8'
p3
I0
I1
tp4
Rp5
(I3
S'<'
p6
NNNI-1
I-1
I0
tp7
bS'Bny\xe2\xc5\x10\xf4?'
p8
tp9
Rp10
a(dp11
S' '
p12
I12
sS'^'
p13
I15
sS'a'
p14
I7
sS'c'
p15
I16
sS'b'
p16
I28
sS'e'
p17
I13
sS'd'
p18
I11
sS'g'
p19
I27
sS'f'
p20
I9
sS'i'
p21
I2
sS'h'
p22
I4
sS'k'
p23
I23
sS'j'
p24
I24
sS'm'
p25
I8
sS'l'
p26
I21
sS'o'
p27
I18
sS'n'
p28
I26
sS'q'
p29
I1
sS'p'
p30
I25
sS's'
p31
I14
sS'r'
p32
I17
sS'u'
p33
I19
sS't'
p34
I3
sS'w'
p35
I22
sS'v'
p36
I5
sS'y'
p37
I6
sS'x'
p38
I20
sS'z'
p39
I10
sa.(lp0
cnumpy.core.multiarray
scalar
p1
(cnumpy
dtype
p2
(S'f8'
p3
I0
I1
tp4
Rp5
(I3
S'<'
p6
NNNI-1
I-1
I0
tp7
bS'\x98-S\xc0Y@\xf4?'
p8
tp9
Rp10
a(dp11
S' '
p12
I3
sS'^'
p13
I11
sS'a'
p14
I17
sS'c'
p15
I18
sS'b'
p16
I6
sS'e'
p17
I13
sS'd'
p18
I14
sS'g'
p19
I25
sS'f'
p20
I27
sS'i'
p21
I2
sS'h'
p22
I21
sS'k'
p23
I19
sS'j'
p24
I24
sS'm'
p25
I5
sS'l'
p26
I7
sS'o'
p27
I16
sS'n'
p28
I26
sS'q'
p29
I23
sS'p'
p30
I15
sS's'
p31
I9
sS'r'
p32
I4
sS'u'
p33
I22
sS't'
p34
I12
sS'w'
p35
I8
sS'v'
p36
I28
sS'y'
p37
I1
sS'x'
p38
I10
sS'z'
p39
I20
sa.(lp0
cnumpy.core.multiarray
scalar
p1
(cnumpy
dtype
p2
(S'f8'
p3
I0
I1
tp4
Rp5
(I3
S'<'
p6
NNNI-1
I-1
I0
tp7
bS'\x03Y\x1f\xf23%\xf4?'
p8
tp9
Rp10
a(dp11
S' '
p12
I13
sS'^'
p13
I6
sS'a'
p14
I22
sS'c'
p15
I21
sS'b'
p16
I15
sS'e'
p17
I17
sS'd'
p18
I12
sS'g'
p19
I28
sS'f'
p20
I5
sS'i'
p21
I3
sS'h'
p22
I27
sS'k'
p23
I19
sS'j'
p24
I24
sS'm'
p25
I23
sS'l'
p26
I16
sS'o'
p27
I14
sS'n'
p28
I26
sS'q'
p29
I10
sS'p'
p30
I9
sS's'
p31
I8
sS'r'
p32
I4
sS'u'
p33
I25
sS't'
p34
I18
sS'w'
p35
I7
sS'v'
p36
I2
sS'y'
p37
I11
sS'x'
p38
I1
sS'z'
p39
I20
sa.(lp0
cnumpy.core.multiarray
scalar
p1
(cnumpy
dtype
p2
(S'f8'
p3
I0
I1
tp4
Rp5
(I3
S'<'
p6
NNNI-1
I-1
I0
tp7
bS'l\xdd+\x01@\xa8\xf3?'
p8
tp9
Rp10
a(dp11
S' '
p12
I17
sS'^'
p13
I6
sS'a'
p14
I13
sS'c'
p15
I9
sS'b'
p16
I25
sS'e'
p17
I12
sS'd'
p18
I16
sS'g'
p19
I1
sS'f'
p20
I22
sS'i'
p21
I7
sS'h'
p22
I11
sS'k'
p23
I23
sS'j'
p24
I24
sS'm'
p25
I27
sS'l'
p26
I4
sS'o'
p27
I26
sS'n'
p28
I2
sS'q'
p29
I10
sS'p'
p30
I5
sS's'
p31
I14
sS'r'
p32
I18
sS'u'
p33
I3
sS't'
p34
I8
sS'w'
p35
I21
sS'v'
p36
I15
sS'y'
p37
I19
sS'x'
p38
I20
sS'z'
p39
I28
sa.(lp0
cnumpy.core.multiarray
scalar
p1
(cnumpy
dtype
p2
(S'f8'
p3
I0
I1
tp4
Rp5
(I3
S'<'
p6
NNNI-1
I-1
I0
tp7
bS'\xf1\xf8\xd0\x10\x18\xa7\xf4?'
p8
tp9
Rp10
a(dp11
S' '
p12
I16
sS'^'
p13
I5
sS'a'
p14
I13
sS'c'
p15
I3
sS'b'
p16
I27
sS'e'
p17
I15
sS'd'
p18
I18
sS'g'
p19
I23
sS'f'
p20
I11
sS'i'
p21
I25
sS'h'
p22
I6
sS'k'
p23
I2
sS'j'
p24
I1
sS'm'
p25
I26
sS'l'
p26
I7
sS'o'
p27
I17
sS'n'
p28
I24
sS'q'
p29
I20
sS'p'
p30
I8
sS's'
p31
I4
sS'r'
p32
I21
sS'u'
p33
I22
sS't'
p34
I12
sS'w'
p35
I14
sS'v'
p36
I9
sS'y'
p37
I28
sS'x'
p38
I19
sS'z'
p39
I10
sa.(lp0
cnumpy.core.multiarray
scalar
p1
(cnumpy
dtype
p2
(S'f8'
p3
I0
I1
tp4
Rp5
(I3
S'<'
p6
NNNI-1
I-1
I0
tp7
bS'\xf6\x0b\xec\x15\x171\xf4?'
p8
tp9
Rp10
a(dp11
S' '
p12
I18
sS'^'
p13
I15
sS'a'
p14
I3
sS'c'
p15
I19
sS'b'
p16
I16
sS'e'
p17
I13
sS'd'
p18
I8
sS'g'
p19
I26
sS'f'
p20
I4
sS'i'
p21
I17
sS'h'
p22
I14
sS'k'
p23
I6
sS'j'
p24
I25
sS'm'
p25
I9
sS'l'
p26
I2
sS'o'
p27
I12
sS'n'
p28
I22
sS'q'
p29
I20
sS'p'
p30
I10
sS's'
p31
I7
sS'r'
p32
I21
sS'u'
p33
I11
sS't'
p34
I27
sS'w'
p35
I23
sS'v'
p36
I5
sS'y'
p37
I1
sS'x'
p38
I28
sS'z'
p39
I24
sa.(lp0
cnumpy.core.multiarray
scalar
p1
(cnumpy
dtype
p2
(S'f8'
p3
I0
I1
tp4
Rp5
(I3
S'<'
p6
NNNI-1
I-1
I0
tp7
bS'\xad\xb1!@\xc2\x98\xf3?'
p8
tp9
Rp10
a(dp11
S' '
p12
I17
sS'^'
p13
I9
sS'a'
p14
I16
sS'c'
p15
I7
sS'b'
p16
I19
sS'e'
p17
I13
sS'd'
p18
I15
sS'g'
p19
I8
sS'f'
p20
I25
sS'i'
p21
I22
sS'h'
p22
I5
sS'k'
p23
I11
sS'j'
p24
I10
sS'm'
p25
I24
sS'l'
p26
I3
sS'o'
p27
I18
sS'n'
p28
I23
sS'q'
p29
I28
sS'p'
p30
I27
sS's'
p31
I12
sS'r'
p32
I26
sS'u'
p33
I4
sS't'
p34
I14
sS'w'
p35
I21
sS'v'
p36
I6
sS'y'
p37
I2
sS'x'
p38
I20
sS'z'
p39
I1
sa.